target datalayout = "e-m:e-p270:32:32-p271:32:32-p272:64:64-i64:64-i128:128-f80:128-n8:16:32:64-S128"
target triple = "x86_64-pc-linux-gnu"

%struct.__mm_loadl_epi64_struct = type { i64 }
%struct.__mm_storel_epi64_struct = type { i64 }
%struct.__loadu_si128 = type { <2 x i64> }
%struct.__storeu_si128 = type { <2 x i64> }

; Function Attrs: inlinehint nounwind uwtable
define internal void @WebPUint32ToMem(ptr noundef %0, i32 noundef %1) #5 {
  %3 = alloca ptr, align 8
  %4 = alloca i32, align 4
  store ptr %0, ptr %3, align 8, !tbaa !9
  store i32 %1, ptr %4, align 4, !tbaa !11
  %5 = load ptr, ptr %3, align 8, !tbaa !9
  call void @llvm.memcpy.p0.p0.i64(ptr align 1 %5, ptr align 4 %4, i64 4, i1 false)
  ret void
}

; Function Attrs: alwaysinline nounwind uwtable
define internal <2 x i64> @_mm_set_epi16(i16 noundef signext %0, i16 noundef signext %1, i16 noundef signext %2, i16 noundef signext %3, i16 noundef signext %4, i16 noundef signext %5, i16 noundef signext %6, i16 noundef signext %7) #3 {
  %9 = alloca i16, align 2
  %10 = alloca i16, align 2
  %11 = alloca i16, align 2
  %12 = alloca i16, align 2
  %13 = alloca i16, align 2
  %14 = alloca i16, align 2
  %15 = alloca i16, align 2
  %16 = alloca i16, align 2
  %17 = alloca <8 x i16>, align 16
  store i16 %0, ptr %9, align 2, !tbaa !27
  store i16 %1, ptr %10, align 2, !tbaa !27
  store i16 %2, ptr %11, align 2, !tbaa !27
  store i16 %3, ptr %12, align 2, !tbaa !27
  store i16 %4, ptr %13, align 2, !tbaa !27
  store i16 %5, ptr %14, align 2, !tbaa !27
  store i16 %6, ptr %15, align 2, !tbaa !27
  store i16 %7, ptr %16, align 2, !tbaa !27
  %18 = load i16, ptr %16, align 2, !tbaa !27
  %19 = insertelement <8 x i16> poison, i16 %18, i32 0
  %20 = load i16, ptr %15, align 2, !tbaa !27
  %21 = insertelement <8 x i16> %19, i16 %20, i32 1
  %22 = load i16, ptr %14, align 2, !tbaa !27
  %23 = insertelement <8 x i16> %21, i16 %22, i32 2
  %24 = load i16, ptr %13, align 2, !tbaa !27
  %25 = insertelement <8 x i16> %23, i16 %24, i32 3
  %26 = load i16, ptr %12, align 2, !tbaa !27
  %27 = insertelement <8 x i16> %25, i16 %26, i32 4
  %28 = load i16, ptr %11, align 2, !tbaa !27
  %29 = insertelement <8 x i16> %27, i16 %28, i32 5
  %30 = load i16, ptr %10, align 2, !tbaa !27
  %31 = insertelement <8 x i16> %29, i16 %30, i32 6
  %32 = load i16, ptr %9, align 2, !tbaa !27
  %33 = insertelement <8 x i16> %31, i16 %32, i32 7
  store <8 x i16> %33, ptr %17, align 16, !tbaa !13
  %34 = load <8 x i16>, ptr %17, align 16, !tbaa !13
  %35 = bitcast <8 x i16> %34 to <2 x i64>
  ret <2 x i64> %35
}

; Function Attrs: inlinehint nounwind uwtable
define internal i32 @WebPMemToUint32(ptr noundef %0) #5 {
  %2 = alloca ptr, align 8
  %3 = alloca i32, align 4
  store ptr %0, ptr %2, align 8, !tbaa !9
  call void @llvm.lifetime.start.p0(i64 4, ptr %3) #9
  %4 = load ptr, ptr %2, align 8, !tbaa !9
  call void @llvm.memcpy.p0.p0.i64(ptr align 4 %3, ptr align 1 %4, i64 4, i1 false)
  %5 = load i32, ptr %3, align 4, !tbaa !11
  call void @llvm.lifetime.end.p0(i64 4, ptr %3) #9
  ret i32 %5
}

; Function Attrs: alwaysinline nounwind uwtable
define internal void @_mm_storeu_si128(ptr noundef %0, <2 x i64> noundef %1) #3 {
  %3 = alloca ptr, align 8
  %4 = alloca <2 x i64>, align 16
  store ptr %0, ptr %3, align 8, !tbaa !3
  store <2 x i64> %1, ptr %4, align 16, !tbaa !13
  %5 = load <2 x i64>, ptr %4, align 16, !tbaa !13
  %6 = load ptr, ptr %3, align 8, !tbaa !3
  %7 = getelementptr inbounds nuw %struct.__storeu_si128, ptr %6, i32 0, i32 0
  store <2 x i64> %5, ptr %7, align 1, !tbaa !13
  ret void
}

; Function Attrs: alwaysinline nounwind uwtable
define internal <2 x i64> @_mm_unpackhi_epi8(<2 x i64> noundef %0, <2 x i64> noundef %1) #3 {
  %3 = alloca <2 x i64>, align 16
  %4 = alloca <2 x i64>, align 16
  store <2 x i64> %0, ptr %3, align 16, !tbaa !13
  store <2 x i64> %1, ptr %4, align 16, !tbaa !13
  %5 = load <2 x i64>, ptr %3, align 16, !tbaa !13
  %6 = bitcast <2 x i64> %5 to <16 x i8>
  %7 = load <2 x i64>, ptr %4, align 16, !tbaa !13
  %8 = bitcast <2 x i64> %7 to <16 x i8>
  %9 = shufflevector <16 x i8> %6, <16 x i8> %8, <16 x i32> <i32 8, i32 24, i32 9, i32 25, i32 10, i32 26, i32 11, i32 27, i32 12, i32 28, i32 13, i32 29, i32 14, i32 30, i32 15, i32 31>
  %10 = bitcast <16 x i8> %9 to <2 x i64>
  ret <2 x i64> %10
}

; Function Attrs: alwaysinline nounwind uwtable
define internal <2 x i64> @_mm_loadu_si128(ptr noundef %0) #3 {
  %2 = alloca ptr, align 8
  store ptr %0, ptr %2, align 8, !tbaa !3
  %3 = load ptr, ptr %2, align 8, !tbaa !3
  %4 = getelementptr inbounds nuw %struct.__loadu_si128, ptr %3, i32 0, i32 0
  %5 = load <2 x i64>, ptr %4, align 1, !tbaa !13
  ret <2 x i64> %5
}

; Function Attrs: alwaysinline nounwind uwtable
define internal void @_mm_storel_epi64(ptr noundef %0, <2 x i64> noundef %1) #3 {
  %3 = alloca ptr, align 8
  %4 = alloca <2 x i64>, align 16
  store ptr %0, ptr %3, align 8, !tbaa !3
  store <2 x i64> %1, ptr %4, align 16, !tbaa !13
  %5 = load <2 x i64>, ptr %4, align 16, !tbaa !13
  %6 = extractelement <2 x i64> %5, i32 0
  %7 = load ptr, ptr %3, align 8, !tbaa !3
  %8 = getelementptr inbounds nuw %struct.__mm_storel_epi64_struct, ptr %7, i32 0, i32 0
  store i64 %6, ptr %8, align 1, !tbaa !13
  ret void
}

; Function Attrs: alwaysinline nounwind uwtable
define internal <2 x i64> @_mm_loadl_epi64(ptr noundef %0) #3 {
  %2 = alloca ptr, align 8
  %3 = alloca <2 x i64>, align 16
  store ptr %0, ptr %2, align 8, !tbaa !3
  %4 = load ptr, ptr %2, align 8, !tbaa !3
  %5 = getelementptr inbounds nuw %struct.__mm_loadl_epi64_struct, ptr %4, i32 0, i32 0
  %6 = load i64, ptr %5, align 1, !tbaa !13
  %7 = insertelement <2 x i64> poison, i64 %6, i32 0
  %8 = insertelement <2 x i64> %7, i64 0, i32 1
  store <2 x i64> %8, ptr %3, align 16, !tbaa !13
  %9 = load <2 x i64>, ptr %3, align 16, !tbaa !13
  ret <2 x i64> %9
}

; Function Attrs: inlinehint nounwind uwtable
define internal void @WebPInt32ToMem(ptr noundef %0, i32 noundef %1) #5 {
  %3 = alloca ptr, align 8
  %4 = alloca i32, align 4
  store ptr %0, ptr %3, align 8, !tbaa !9
  store i32 %1, ptr %4, align 4, !tbaa !11
  %5 = load ptr, ptr %3, align 8, !tbaa !9
  %6 = load i32, ptr %4, align 4, !tbaa !11
  call void @WebPUint32ToMem(ptr noundef %5, i32 noundef %6)
  ret void
}

; Function Attrs: alwaysinline nounwind uwtable
define internal i32 @_mm_cvtsi128_si32(<2 x i64> noundef %0) #3 {
  %2 = alloca <2 x i64>, align 16
  %3 = alloca <4 x i32>, align 16
  store <2 x i64> %0, ptr %2, align 16, !tbaa !13
  call void @llvm.lifetime.start.p0(i64 16, ptr %3) #9
  %4 = load <2 x i64>, ptr %2, align 16, !tbaa !13
  %5 = bitcast <2 x i64> %4 to <4 x i32>
  store <4 x i32> %5, ptr %3, align 16, !tbaa !13
  %6 = load <4 x i32>, ptr %3, align 16, !tbaa !13
  %7 = extractelement <4 x i32> %6, i32 0
  call void @llvm.lifetime.end.p0(i64 16, ptr %3) #9
  ret i32 %7
}

; Function Attrs: alwaysinline nounwind uwtable
define internal <2 x i64> @_mm_packus_epi16(<2 x i64> noundef %0, <2 x i64> noundef %1) #3 {
  %3 = alloca <2 x i64>, align 16
  %4 = alloca <2 x i64>, align 16
  store <2 x i64> %0, ptr %3, align 16, !tbaa !13
  store <2 x i64> %1, ptr %4, align 16, !tbaa !13
  %5 = load <2 x i64>, ptr %3, align 16, !tbaa !13
  %6 = bitcast <2 x i64> %5 to <8 x i16>
  %7 = load <2 x i64>, ptr %4, align 16, !tbaa !13
  %8 = bitcast <2 x i64> %7 to <8 x i16>
  %9 = call <16 x i8> @llvm.x86.sse2.packuswb.128(<8 x i16> %6, <8 x i16> %8)
  %10 = bitcast <16 x i8> %9 to <2 x i64>
  ret <2 x i64> %10
}

; Function Attrs: alwaysinline nounwind uwtable
define internal <2 x i64> @_mm_add_epi16(<2 x i64> noundef %0, <2 x i64> noundef %1) #3 {
  %3 = alloca <2 x i64>, align 16
  %4 = alloca <2 x i64>, align 16
  store <2 x i64> %0, ptr %3, align 16, !tbaa !13
  store <2 x i64> %1, ptr %4, align 16, !tbaa !13
  %5 = load <2 x i64>, ptr %3, align 16, !tbaa !13
  %6 = bitcast <2 x i64> %5 to <8 x i16>
  %7 = load <2 x i64>, ptr %4, align 16, !tbaa !13
  %8 = bitcast <2 x i64> %7 to <8 x i16>
  %9 = add <8 x i16> %6, %8
  %10 = bitcast <8 x i16> %9 to <2 x i64>
  ret <2 x i64> %10
}

; Function Attrs: alwaysinline nounwind uwtable
define internal <2 x i64> @_mm_set1_epi16(i16 noundef signext %0) #3 {
  %2 = alloca i16, align 2
  store i16 %0, ptr %2, align 2, !tbaa !27
  %3 = load i16, ptr %2, align 2, !tbaa !27
  %4 = load i16, ptr %2, align 2, !tbaa !27
  %5 = load i16, ptr %2, align 2, !tbaa !27
  %6 = load i16, ptr %2, align 2, !tbaa !27
  %7 = load i16, ptr %2, align 2, !tbaa !27
  %8 = load i16, ptr %2, align 2, !tbaa !27
  %9 = load i16, ptr %2, align 2, !tbaa !27
  %10 = load i16, ptr %2, align 2, !tbaa !27
  %11 = call <2 x i64> @_mm_set_epi16(i16 noundef signext %3, i16 noundef signext %4, i16 noundef signext %5, i16 noundef signext %6, i16 noundef signext %7, i16 noundef signext %8, i16 noundef signext %9, i16 noundef signext %10)
  ret <2 x i64> %11
}

; Function Attrs: alwaysinline nounwind uwtable
define internal <2 x i64> @_mm_unpacklo_epi8(<2 x i64> noundef %0, <2 x i64> noundef %1) #3 {
  %3 = alloca <2 x i64>, align 16
  %4 = alloca <2 x i64>, align 16
  store <2 x i64> %0, ptr %3, align 16, !tbaa !13
  store <2 x i64> %1, ptr %4, align 16, !tbaa !13
  %5 = load <2 x i64>, ptr %3, align 16, !tbaa !13
  %6 = bitcast <2 x i64> %5 to <16 x i8>
  %7 = load <2 x i64>, ptr %4, align 16, !tbaa !13
  %8 = bitcast <2 x i64> %7 to <16 x i8>
  %9 = shufflevector <16 x i8> %6, <16 x i8> %8, <16 x i32> <i32 0, i32 16, i32 1, i32 17, i32 2, i32 18, i32 3, i32 19, i32 4, i32 20, i32 5, i32 21, i32 6, i32 22, i32 7, i32 23>
  %10 = bitcast <16 x i8> %9 to <2 x i64>
  ret <2 x i64> %10
}

; Function Attrs: alwaysinline nounwind uwtable
define internal <2 x i64> @_mm_cvtsi32_si128(i32 noundef %0) #3 {
  %2 = alloca i32, align 4
  %3 = alloca <4 x i32>, align 16
  store i32 %0, ptr %2, align 4, !tbaa !11
  %4 = load i32, ptr %2, align 4, !tbaa !11
  %5 = insertelement <4 x i32> poison, i32 %4, i32 0
  %6 = insertelement <4 x i32> %5, i32 0, i32 1
  %7 = insertelement <4 x i32> %6, i32 0, i32 2
  %8 = insertelement <4 x i32> %7, i32 0, i32 3
  store <4 x i32> %8, ptr %3, align 16, !tbaa !13
  %9 = load <4 x i32>, ptr %3, align 16, !tbaa !13
  %10 = bitcast <4 x i32> %9 to <2 x i64>
  ret <2 x i64> %10
}

; Function Attrs: inlinehint nounwind uwtable
define internal i32 @WebPMemToInt32(ptr noundef %0) #5 {
  %2 = alloca ptr, align 8
  store ptr %0, ptr %2, align 8, !tbaa !9
  %3 = load ptr, ptr %2, align 8, !tbaa !9
  %4 = call i32 @WebPMemToUint32(ptr noundef %3)
  ret i32 %4
}

; Function Attrs: alwaysinline nounwind uwtable
define internal <2 x i64> @_mm_setzero_si128() #3 {
  %1 = alloca <2 x i64>, align 16
  store <2 x i64> zeroinitializer, ptr %1, align 16, !tbaa !13
  %2 = load <2 x i64>, ptr %1, align 16, !tbaa !13
  ret <2 x i64> %2
}

; Function Attrs: inlinehint nounwind uwtable
define internal void @TrueMotion_SSE2(ptr noundef %0, i32 noundef %1) #4 {
  %3 = alloca ptr, align 8
  %4 = alloca i32, align 4
  %5 = alloca ptr, align 8
  %6 = alloca <2 x i64>, align 16
  %7 = alloca i32, align 4
  %8 = alloca <2 x i64>, align 16
  %9 = alloca <2 x i64>, align 16
  %10 = alloca i32, align 4
  %11 = alloca <2 x i64>, align 16
  %12 = alloca <2 x i64>, align 16
  %13 = alloca <2 x i64>, align 16
  %14 = alloca <2 x i64>, align 16
  %15 = alloca i32, align 4
  %16 = alloca <2 x i64>, align 16
  %17 = alloca <2 x i64>, align 16
  %18 = alloca <2 x i64>, align 16
  %19 = alloca <2 x i64>, align 16
  %20 = alloca <2 x i64>, align 16
  %21 = alloca i32, align 4
  %22 = alloca <2 x i64>, align 16
  %23 = alloca <2 x i64>, align 16
  %24 = alloca <2 x i64>, align 16
  %25 = alloca <2 x i64>, align 16
  store ptr %0, ptr %3, align 8, !tbaa !9
  store i32 %1, ptr %4, align 4, !tbaa !11
  call void @llvm.lifetime.start.p0(i64 8, ptr %5) #9
  %26 = load ptr, ptr %3, align 8, !tbaa !9
  %27 = getelementptr inbounds i8, ptr %26, i64 -32
  store ptr %27, ptr %5, align 8, !tbaa !9
  call void @llvm.lifetime.start.p0(i64 16, ptr %6) #9
  %28 = call <2 x i64> @_mm_setzero_si128()
  store <2 x i64> %28, ptr %6, align 16, !tbaa !13
  call void @llvm.lifetime.start.p0(i64 4, ptr %7) #9
  %29 = load i32, ptr %4, align 4, !tbaa !11
  %30 = icmp eq i32 %29, 4
  br i1 %30, label %31, label %68

31:                                               ; preds = %2
  call void @llvm.lifetime.start.p0(i64 16, ptr %8) #9
  %32 = load ptr, ptr %5, align 8, !tbaa !9
  %33 = call i32 @WebPMemToInt32(ptr noundef %32)
  %34 = call <2 x i64> @_mm_cvtsi32_si128(i32 noundef %33)
  store <2 x i64> %34, ptr %8, align 16, !tbaa !13
  call void @llvm.lifetime.start.p0(i64 16, ptr %9) #9
  %35 = load <2 x i64>, ptr %8, align 16, !tbaa !13
  %36 = load <2 x i64>, ptr %6, align 16, !tbaa !13
  %37 = call <2 x i64> @_mm_unpacklo_epi8(<2 x i64> noundef %35, <2 x i64> noundef %36)
  store <2 x i64> %37, ptr %9, align 16, !tbaa !13
  store i32 0, ptr %7, align 4, !tbaa !11
  br label %38

38:                                               ; preds = %62, %31
  %39 = load i32, ptr %7, align 4, !tbaa !11
  %40 = icmp slt i32 %39, 4
  br i1 %40, label %41, label %67

41:                                               ; preds = %38
  call void @llvm.lifetime.start.p0(i64 4, ptr %10) #9
  %42 = load ptr, ptr %3, align 8, !tbaa !9
  %43 = getelementptr inbounds i8, ptr %42, i64 -1
  %44 = load i8, ptr %43, align 1, !tbaa !13
  %45 = zext i8 %44 to i32
  %46 = load ptr, ptr %5, align 8, !tbaa !9
  %47 = getelementptr inbounds i8, ptr %46, i64 -1
  %48 = load i8, ptr %47, align 1, !tbaa !13
  %49 = zext i8 %48 to i32
  %50 = sub nsw i32 %45, %49
  store i32 %50, ptr %10, align 4, !tbaa !11
  call void @llvm.lifetime.start.p0(i64 16, ptr %11) #9
  %51 = load i32, ptr %10, align 4, !tbaa !11
  %52 = trunc i32 %51 to i16
  %53 = call <2 x i64> @_mm_set1_epi16(i16 noundef signext %52)
  store <2 x i64> %53, ptr %11, align 16, !tbaa !13
  call void @llvm.lifetime.start.p0(i64 16, ptr %12) #9
  %54 = load <2 x i64>, ptr %11, align 16, !tbaa !13
  %55 = load <2 x i64>, ptr %9, align 16, !tbaa !13
  %56 = call <2 x i64> @_mm_add_epi16(<2 x i64> noundef %54, <2 x i64> noundef %55)
  %57 = load <2 x i64>, ptr %6, align 16, !tbaa !13
  %58 = call <2 x i64> @_mm_packus_epi16(<2 x i64> noundef %56, <2 x i64> noundef %57)
  store <2 x i64> %58, ptr %12, align 16, !tbaa !13
  %59 = load ptr, ptr %3, align 8, !tbaa !9
  %60 = load <2 x i64>, ptr %12, align 16, !tbaa !13
  %61 = call i32 @_mm_cvtsi128_si32(<2 x i64> noundef %60)
  call void @WebPInt32ToMem(ptr noundef %59, i32 noundef %61)
  call void @llvm.lifetime.end.p0(i64 16, ptr %12) #9
  call void @llvm.lifetime.end.p0(i64 16, ptr %11) #9
  call void @llvm.lifetime.end.p0(i64 4, ptr %10) #9
  br label %62

62:                                               ; preds = %41
  %63 = load i32, ptr %7, align 4, !tbaa !11
  %64 = add nsw i32 %63, 1
  store i32 %64, ptr %7, align 4, !tbaa !11
  %65 = load ptr, ptr %3, align 8, !tbaa !9
  %66 = getelementptr inbounds i8, ptr %65, i64 32
  store ptr %66, ptr %3, align 8, !tbaa !9
  br label %38, !llvm.loop !30

67:                                               ; preds = %38
  call void @llvm.lifetime.end.p0(i64 16, ptr %9) #9
  call void @llvm.lifetime.end.p0(i64 16, ptr %8) #9
  br label %149

68:                                               ; preds = %2
  %69 = load i32, ptr %4, align 4, !tbaa !11
  %70 = icmp eq i32 %69, 8
  br i1 %70, label %71, label %106

71:                                               ; preds = %68
  call void @llvm.lifetime.start.p0(i64 16, ptr %13) #9
  %72 = load ptr, ptr %5, align 8, !tbaa !9
  %73 = call <2 x i64> @_mm_loadl_epi64(ptr noundef %72)
  store <2 x i64> %73, ptr %13, align 16, !tbaa !13
  call void @llvm.lifetime.start.p0(i64 16, ptr %14) #9
  %74 = load <2 x i64>, ptr %13, align 16, !tbaa !13
  %75 = load <2 x i64>, ptr %6, align 16, !tbaa !13
  %76 = call <2 x i64> @_mm_unpacklo_epi8(<2 x i64> noundef %74, <2 x i64> noundef %75)
  store <2 x i64> %76, ptr %14, align 16, !tbaa !13
  store i32 0, ptr %7, align 4, !tbaa !11
  br label %77

77:                                               ; preds = %100, %71
  %78 = load i32, ptr %7, align 4, !tbaa !11
  %79 = icmp slt i32 %78, 8
  br i1 %79, label %80, label %105

80:                                               ; preds = %77
  call void @llvm.lifetime.start.p0(i64 4, ptr %15) #9
  %81 = load ptr, ptr %3, align 8, !tbaa !9
  %82 = getelementptr inbounds i8, ptr %81, i64 -1
  %83 = load i8, ptr %82, align 1, !tbaa !13
  %84 = zext i8 %83 to i32
  %85 = load ptr, ptr %5, align 8, !tbaa !9
  %86 = getelementptr inbounds i8, ptr %85, i64 -1
  %87 = load i8, ptr %86, align 1, !tbaa !13
  %88 = zext i8 %87 to i32
  %89 = sub nsw i32 %84, %88
  store i32 %89, ptr %15, align 4, !tbaa !11
  call void @llvm.lifetime.start.p0(i64 16, ptr %16) #9
  %90 = load i32, ptr %15, align 4, !tbaa !11
  %91 = trunc i32 %90 to i16
  %92 = call <2 x i64> @_mm_set1_epi16(i16 noundef signext %91)
  store <2 x i64> %92, ptr %16, align 16, !tbaa !13
  call void @llvm.lifetime.start.p0(i64 16, ptr %17) #9
  %93 = load <2 x i64>, ptr %16, align 16, !tbaa !13
  %94 = load <2 x i64>, ptr %14, align 16, !tbaa !13
  %95 = call <2 x i64> @_mm_add_epi16(<2 x i64> noundef %93, <2 x i64> noundef %94)
  %96 = load <2 x i64>, ptr %6, align 16, !tbaa !13
  %97 = call <2 x i64> @_mm_packus_epi16(<2 x i64> noundef %95, <2 x i64> noundef %96)
  store <2 x i64> %97, ptr %17, align 16, !tbaa !13
  %98 = load ptr, ptr %3, align 8, !tbaa !9
  %99 = load <2 x i64>, ptr %17, align 16, !tbaa !13
  call void @_mm_storel_epi64(ptr noundef %98, <2 x i64> noundef %99)
  call void @llvm.lifetime.end.p0(i64 16, ptr %17) #9
  call void @llvm.lifetime.end.p0(i64 16, ptr %16) #9
  call void @llvm.lifetime.end.p0(i64 4, ptr %15) #9
  br label %100

100:                                              ; preds = %80
  %101 = load i32, ptr %7, align 4, !tbaa !11
  %102 = add nsw i32 %101, 1
  store i32 %102, ptr %7, align 4, !tbaa !11
  %103 = load ptr, ptr %3, align 8, !tbaa !9
  %104 = getelementptr inbounds i8, ptr %103, i64 32
  store ptr %104, ptr %3, align 8, !tbaa !9
  br label %77, !llvm.loop !31

105:                                              ; preds = %77
  call void @llvm.lifetime.end.p0(i64 16, ptr %14) #9
  call void @llvm.lifetime.end.p0(i64 16, ptr %13) #9
  br label %148

106:                                              ; preds = %68
  call void @llvm.lifetime.start.p0(i64 16, ptr %18) #9
  %107 = load ptr, ptr %5, align 8, !tbaa !9
  %108 = call <2 x i64> @_mm_loadu_si128(ptr noundef %107)
  store <2 x i64> %108, ptr %18, align 16, !tbaa !13
  call void @llvm.lifetime.start.p0(i64 16, ptr %19) #9
  %109 = load <2 x i64>, ptr %18, align 16, !tbaa !13
  %110 = load <2 x i64>, ptr %6, align 16, !tbaa !13
  %111 = call <2 x i64> @_mm_unpacklo_epi8(<2 x i64> noundef %109, <2 x i64> noundef %110)
  store <2 x i64> %111, ptr %19, align 16, !tbaa !13
  call void @llvm.lifetime.start.p0(i64 16, ptr %20) #9
  %112 = load <2 x i64>, ptr %18, align 16, !tbaa !13
  %113 = load <2 x i64>, ptr %6, align 16, !tbaa !13
  %114 = call <2 x i64> @_mm_unpackhi_epi8(<2 x i64> noundef %112, <2 x i64> noundef %113)
  store <2 x i64> %114, ptr %20, align 16, !tbaa !13
  store i32 0, ptr %7, align 4, !tbaa !11
  br label %115

115:                                              ; preds = %142, %106
  %116 = load i32, ptr %7, align 4, !tbaa !11
  %117 = icmp slt i32 %116, 16
  br i1 %117, label %118, label %147

118:                                              ; preds = %115
  call void @llvm.lifetime.start.p0(i64 4, ptr %21) #9
  %119 = load ptr, ptr %3, align 8, !tbaa !9
  %120 = getelementptr inbounds i8, ptr %119, i64 -1
  %121 = load i8, ptr %120, align 1, !tbaa !13
  %122 = zext i8 %121 to i32
  %123 = load ptr, ptr %5, align 8, !tbaa !9
  %124 = getelementptr inbounds i8, ptr %123, i64 -1
  %125 = load i8, ptr %124, align 1, !tbaa !13
  %126 = zext i8 %125 to i32
  %127 = sub nsw i32 %122, %126
  store i32 %127, ptr %21, align 4, !tbaa !11
  call void @llvm.lifetime.start.p0(i64 16, ptr %22) #9
  %128 = load i32, ptr %21, align 4, !tbaa !11
  %129 = trunc i32 %128 to i16
  %130 = call <2 x i64> @_mm_set1_epi16(i16 noundef signext %129)
  store <2 x i64> %130, ptr %22, align 16, !tbaa !13
  call void @llvm.lifetime.start.p0(i64 16, ptr %23) #9
  %131 = load <2 x i64>, ptr %22, align 16, !tbaa !13
  %132 = load <2 x i64>, ptr %19, align 16, !tbaa !13
  %133 = call <2 x i64> @_mm_add_epi16(<2 x i64> noundef %131, <2 x i64> noundef %132)
  store <2 x i64> %133, ptr %23, align 16, !tbaa !13
  call void @llvm.lifetime.start.p0(i64 16, ptr %24) #9
  %134 = load <2 x i64>, ptr %22, align 16, !tbaa !13
  %135 = load <2 x i64>, ptr %20, align 16, !tbaa !13
  %136 = call <2 x i64> @_mm_add_epi16(<2 x i64> noundef %134, <2 x i64> noundef %135)
  store <2 x i64> %136, ptr %24, align 16, !tbaa !13
  call void @llvm.lifetime.start.p0(i64 16, ptr %25) #9
  %137 = load <2 x i64>, ptr %23, align 16, !tbaa !13
  %138 = load <2 x i64>, ptr %24, align 16, !tbaa !13
  %139 = call <2 x i64> @_mm_packus_epi16(<2 x i64> noundef %137, <2 x i64> noundef %138)
  store <2 x i64> %139, ptr %25, align 16, !tbaa !13
  %140 = load ptr, ptr %3, align 8, !tbaa !9
  %141 = load <2 x i64>, ptr %25, align 16, !tbaa !13
  call void @_mm_storeu_si128(ptr noundef %140, <2 x i64> noundef %141)
  call void @llvm.lifetime.end.p0(i64 16, ptr %25) #9
  call void @llvm.lifetime.end.p0(i64 16, ptr %24) #9
  call void @llvm.lifetime.end.p0(i64 16, ptr %23) #9
  call void @llvm.lifetime.end.p0(i64 16, ptr %22) #9
  call void @llvm.lifetime.end.p0(i64 4, ptr %21) #9
  br label %142

142:                                              ; preds = %118
  %143 = load i32, ptr %7, align 4, !tbaa !11
  %144 = add nsw i32 %143, 1
  store i32 %144, ptr %7, align 4, !tbaa !11
  %145 = load ptr, ptr %3, align 8, !tbaa !9
  %146 = getelementptr inbounds i8, ptr %145, i64 32
  store ptr %146, ptr %3, align 8, !tbaa !9
  br label %115, !llvm.loop !32

147:                                              ; preds = %115
  call void @llvm.lifetime.end.p0(i64 16, ptr %20) #9
  call void @llvm.lifetime.end.p0(i64 16, ptr %19) #9
  call void @llvm.lifetime.end.p0(i64 16, ptr %18) #9
  br label %148

148:                                              ; preds = %147, %105
  br label %149

149:                                              ; preds = %148, %67
  call void @llvm.lifetime.end.p0(i64 4, ptr %7) #9
  call void @llvm.lifetime.end.p0(i64 16, ptr %6) #9
  call void @llvm.lifetime.end.p0(i64 8, ptr %5) #9
  ret void
}

; Function Attrs: nounwind uwtable
define internal void @TM8uv_SSE2(ptr noundef %0) #0 {
  %2 = alloca ptr, align 8
  store ptr %0, ptr %2, align 8, !tbaa !9
  %3 = load ptr, ptr %2, align 8, !tbaa !9
  call void @TrueMotion_SSE2(ptr noundef %3, i32 noundef 8)
  ret void
}