; Function Attrs: nofree norecurse nosync nounwind memory(argmem: readwrite) uwtable
define internal void @TM8uv_SSE2(ptr noundef captures(none) %0) #2 {
  %2 = getelementptr inbounds i8, ptr %0, i64 -32
  %3 = load i64, ptr %2, align 1, !tbaa !7
  %4 = insertelement <2 x i64> poison, i64 %3, i64 0
  %5 = bitcast <2 x i64> %4 to <16 x i8>
  %6 = shufflevector <16 x i8> %5, <16 x i8> <i8 0, i8 0, i8 0, i8 0, i8 0, i8 0, i8 0, i8 0, i8 poison, i8 poison, i8 poison, i8 poison, i8 poison, i8 poison, i8 poison, i8 poison>, <16 x i32> <i32 0, i32 16, i32 1, i32 17, i32 2, i32 18, i32 3, i32 19, i32 4, i32 20, i32 5, i32 21, i32 6, i32 22, i32 7, i32 23>
  %7 = getelementptr inbounds i8, ptr %0, i64 -33
  %8 = bitcast <16 x i8> %6 to <8 x i16>
  br label %9

9:                                                ; preds = %9, %1
  %.156.i = phi ptr [ %0, %1 ], [ %23, %9 ]
  %.15055.i = phi i32 [ 0, %1 ], [ %22, %9 ]
  %10 = getelementptr inbounds i8, ptr %.156.i, i64 -1
  %11 = load i8, ptr %10, align 1, !tbaa !7
  %12 = zext i8 %11 to i16
  %13 = load i8, ptr %7, align 1, !tbaa !7
  %14 = zext i8 %13 to i16
  %15 = sub nsw i16 %12, %14
  %16 = insertelement <8 x i16> poison, i16 %15, i64 0
  %17 = shufflevector <8 x i16> %16, <8 x i16> poison, <8 x i32> zeroinitializer
  %18 = add <8 x i16> %17, %8
  %19 = tail call <16 x i8> @llvm.x86.sse2.packuswb.128(<8 x i16> %18, <8 x i16> poison)
  %20 = bitcast <16 x i8> %19 to <2 x i64>
  %21 = extractelement <2 x i64> %20, i64 0
  store i64 %21, ptr %.156.i, align 1, !tbaa !7
  %22 = add nuw nsw i32 %.15055.i, 1
  %23 = getelementptr inbounds nuw i8, ptr %.156.i, i64 32
  %exitcond.not.i = icmp eq i32 %22, 8
  br i1 %exitcond.not.i, label %TrueMotion_SSE2.exit, label %9, !llvm.loop !24

TrueMotion_SSE2.exit:                             ; preds = %9
  ret void
}